target datalayout = "e-m:e-p270:32:32-p271:32:32-p272:64:64-i64:64-i128:128-f80:128-n8:16:32:64-S128"
target triple = "x86_64-pc-linux-gnu"

%"class.clang::ast_matchers::internal::DynMatcherInterface.base" = type <{ ptr, %"class.llvm::ThreadSafeRefCountedBase" }>
%"class.llvm::ThreadSafeRefCountedBase" = type { %"struct.std::atomic" }
%"struct.std::atomic" = type { %"struct.std::__atomic_base" }
%"struct.std::__atomic_base" = type { i32 }
%"class.clang::ast_matchers::internal::MatcherInterface.base.441" = type { %"class.clang::ast_matchers::internal::DynMatcherInterface.base" }
%"class.std::vector.722" = type { %"struct.std::_Vector_base.723" }
%"struct.std::_Vector_base.723" = type { %"struct.std::_Vector_base<std::__cxx11::basic_string<char>, std::allocator<std::__cxx11::basic_string<char>>>::_Vector_impl" }
%"struct.std::_Vector_base<std::__cxx11::basic_string<char>, std::allocator<std::__cxx11::basic_string<char>>>::_Vector_impl" = type { %"struct.std::_Vector_base<std::__cxx11::basic_string<char>, std::allocator<std::__cxx11::basic_string<char>>>::_Vector_impl_data" }
%"struct.std::_Vector_base<std::__cxx11::basic_string<char>, std::allocator<std::__cxx11::basic_string<char>>>::_Vector_impl_data" = type { ptr, ptr, ptr }
%"class.clang::ast_matchers::internal::HasNameMatcher" = type { %"class.clang::ast_matchers::internal::SingleNodeMatcherInterface.base", i8, %"class.std::vector.722" }
%"class.clang::ast_matchers::internal::SingleNodeMatcherInterface.base" = type { %"class.clang::ast_matchers::internal::MatcherInterface.base.441" }

; Function Attrs: mustprogress nounwind uwtable
define dso_local noundef zeroext i1 @_ZNK5clang12ast_matchers8internal14HasNameMatcher11matchesNodeERKNS_9NamedDeclE(ptr noundef nonnull align 8 dereferenceable(40) %0, ptr noundef nonnull align 8 dereferenceable(48) %1) unnamed_addr #0 align 2 {
  %3 = alloca i1, align 1
  %4 = alloca ptr, align 8
  %5 = alloca ptr, align 8
  store ptr %0, ptr %4, align 8
  store ptr %1, ptr %5, align 8
  %6 = load ptr, ptr %4, align 8
  %7 = getelementptr inbounds nuw %"class.clang::ast_matchers::internal::HasNameMatcher", ptr %6, i32 0, i32 1
  %8 = load i8, ptr %7, align 4
  %9 = trunc i8 %8 to i1
  br i1 %9, label %10, label %13

10:                                               ; preds = %2
  %11 = load ptr, ptr %5, align 8
  %12 = call noundef zeroext i1 @_ZNK5clang12ast_matchers8internal14HasNameMatcher22matchesNodeUnqualifiedERKNS_9NamedDeclE(ptr noundef nonnull align 8 dereferenceable(40) %6, ptr noundef nonnull align 8 dereferenceable(48) %11)
  store i1 %12, ptr %3, align 1
  br label %16

13:                                               ; preds = %2
  %14 = load ptr, ptr %5, align 8
  %15 = call noundef zeroext i1 @_ZNK5clang12ast_matchers8internal14HasNameMatcher19matchesNodeFullFastERKNS_9NamedDeclE(ptr noundef nonnull align 8 dereferenceable(40) %6, ptr noundef nonnull align 8 dereferenceable(48) %14)
  store i1 %15, ptr %3, align 1
  br label %16

16:                                               ; preds = %13, %10
  %17 = load i1, ptr %3, align 1
  ret i1 %17
}