; Function Attrs: mustprogress nounwind uwtable
define dso_local noundef zeroext i1 @_ZNK5clang12ast_matchers8internal14HasNameMatcher11matchesNodeERKNS_9NamedDeclE(ptr nocapture noundef nonnull readonly align 8 dereferenceable(40) %0, ptr noundef nonnull align 8 dereferenceable(48) %1) unnamed_addr #2 align 2 {
  %3 = getelementptr inbounds nuw i8, ptr %0, i64 12
  %4 = load i8, ptr %3, align 4
  %5 = trunc i8 %4 to i1
  br i1 %5, label %6, label %8

6:                                                ; preds = %2
  %7 = tail call noundef zeroext i1 @_ZNK5clang12ast_matchers8internal14HasNameMatcher22matchesNodeUnqualifiedERKNS_9NamedDeclE(ptr noundef nonnull align 8 dereferenceable(40) %0, ptr noundef nonnull align 8 dereferenceable(48) %1)
  br label %10

8:                                                ; preds = %2
  %9 = tail call noundef zeroext i1 @_ZNK5clang12ast_matchers8internal14HasNameMatcher19matchesNodeFullFastERKNS_9NamedDeclE(ptr noundef nonnull align 8 dereferenceable(40) %0, ptr noundef nonnull align 8 dereferenceable(48) %1)
  br label %10

10:                                               ; preds = %8, %6
  %.0 = phi i1 [ %7, %6 ], [ %9, %8 ]
  ret i1 %.0
}